TN:
SF:/home/maxim/Рабочий стол/TestMemeger/Memeger/project/database/include/imessage.h
FN:10,_ZN8IMessageC2Ev
FN:18,_ZN8IMessageD2Ev
FN:18,_ZN8IMessageD0Ev
FNDA:8,_ZN8IMessageD2Ev
FNDA:4,_ZN8IMessageC2Ev
FNDA:0,_ZN8IMessageD0Ev
FNF:3
FNH:2
DA:10,4
DA:18,8
LF:2
LH:2
end_of_record
TN:
SF:/home/maxim/Рабочий стол/TestMemeger/Memeger/project/database/include/models.h
FN:44,_ZN4UserC2ENSt7__cxx1112basic_stringIcSt11char_traitsIcESaIcEEES5_
FN:48,_ZN4UserD2Ev
FN:78,_ZN11TextMessageD0Ev
FN:78,_ZN11TextMessageD2Ev
FN:80,_ZN11TextMessageC2ENSt7__cxx1112basic_stringIcSt11char_traitsIcESaIcEEES5_S5_
FN:135,_ZN4ChatC2ENSt7__cxx1112basic_stringIcSt11char_traitsIcESaIcEEESt6vectorIS5_SaIS5_EE
FN:144,_ZN4ChatD2Ev
FNDA:1,_ZN4ChatC2ENSt7__cxx1112basic_stringIcSt11char_traitsIcESaIcEEESt6vectorIS5_SaIS5_EE
FNDA:0,_ZN11TextMessageD0Ev
FNDA:8,_ZN11TextMessageD2Ev
FNDA:7,_ZN4UserD2Ev
FNDA:1,_ZN4UserC2ENSt7__cxx1112basic_stringIcSt11char_traitsIcESaIcEEES5_
FNDA:2,_ZN11TextMessageC2ENSt7__cxx1112basic_stringIcSt11char_traitsIcESaIcEEES5_S5_
FNDA:5,_ZN4ChatD2Ev
FNF:7
FNH:6
DA:44,1
DA:45,1
DA:46,1
DA:48,7
DA:78,8
DA:80,2
DA:82,4
DA:83,2
DA:84,2
DA:135,1
DA:136,2
DA:137,1
DA:144,5
LF:13
LH:13
end_of_record
TN:
SF:/home/maxim/Рабочий стол/TestMemeger/Memeger/project/server/src/async.http.server.cpp
FN:11,_ZN7server36serverC2ERKNSt7__cxx1112basic_stringIcSt11char_traitsIcESaIcEEES8_m
FN:27,_ZN7server36server3runEv
FN:45,_ZN7server36server12start_acceptEv
FN:52,_ZN7server36server13handle_acceptEN5boost6system10error_codeENS1_4asio19basic_stream_socketINS4_2ip3tcpENS4_8executorEEE
FN:65,_ZN7server36server11handle_stopEv
FNDA:0,_ZN7server36serverC2ERKNSt7__cxx1112basic_stringIcSt11char_traitsIcESaIcEEES8_m
FNDA:0,_ZN7server36server12start_acceptEv
FNDA:0,_ZN7server36server3runEv
FNDA:0,_ZN7server36server13handle_acceptEN5boost6system10error_codeENS1_4asio19basic_stream_socketINS4_2ip3tcpENS4_8executorEEE
FNDA:0,_ZN7server36server11handle_stopEv
FNF:5
FNH:0
DA:11,0
DA:12,0
DA:15,0
DA:19,0
DA:20,0
DA:21,0
DA:22,0
DA:23,0
DA:24,0
DA:25,0
DA:27,0
DA:29,0
DA:32,0
DA:33,0
DA:36,0
DA:37,0
DA:41,0
DA:42,0
DA:43,0
DA:45,0
DA:47,0
DA:48,0
DA:49,0
DA:50,0
DA:52,0
DA:54,0
DA:56,0
DA:58,0
DA:59,0
DA:62,0
DA:63,0
DA:65,0
DA:67,0
DA:68,0
LF:34
LH:0
end_of_record
TN:
SF:/home/maxim/Рабочий стол/TestMemeger/Memeger/project/server/src/connection.cpp
FN:21,_ZN7server310ConnectionC2EON5boost4asio19basic_stream_socketINS2_2ip3tcpENS2_8executorEEE
FN:27,_ZN7server310Connection5startEv
FN:35,_ZN7server310Connection7do_readEv
FN:48,_ZN7server310Connection11handle_readEN5boost6system10error_codeEm
FN:206,_ZN7server310Connection12handle_writeEbN5boost6system10error_codeEm
FN:223,_ZN7server310Connection8do_closeEv
FNDA:0,_ZN7server310Connection8do_closeEv
FNDA:0,_ZN7server310Connection7do_readEv
FNDA:0,_ZN7server310Connection5startEv
FNDA:0,_ZN7server310Connection11handle_readEN5boost6system10error_codeEm
FNDA:0,_ZN7server310ConnectionC2EON5boost4asio19basic_stream_socketINS2_2ip3tcpENS2_8executorEEE
FNDA:0,_ZN7server310Connection12handle_writeEbN5boost6system10error_codeEm
FNF:6
FNH:0
DA:21,0
DA:22,0
DA:24,0
DA:27,0
DA:29,0
DA:30,0
DA:31,0
DA:33,0
DA:35,0
DA:37,0
DA:40,0
DA:41,0
DA:42,0
DA:43,0
DA:44,0
DA:48,0
DA:51,0
DA:52,0
DA:53,0
DA:55,0
DA:58,0
DA:60,0
DA:62,0
DA:63,0
DA:64,0
DA:65,0
DA:66,0
DA:71,0
DA:74,0
DA:76,0
DA:80,0
DA:83,0
DA:86,0
DA:90,0
DA:93,0
DA:96,0
DA:98,0
DA:103,0
DA:105,0
DA:109,0
DA:112,0
DA:115,0
DA:118,0
DA:121,0
DA:123,0
DA:125,0
DA:127,0
DA:129,0
DA:131,0
DA:133,0
DA:135,0
DA:137,0
DA:139,0
DA:141,0
DA:143,0
DA:146,0
DA:149,0
DA:152,0
DA:156,0
DA:158,0
DA:164,0
DA:166,0
DA:169,0
DA:171,0
DA:175,0
DA:177,0
DA:184,0
DA:185,0
DA:186,0
DA:187,0
DA:188,0
DA:194,0
DA:195,0
DA:197,0
DA:198,0
DA:199,0
DA:200,0
DA:201,0
DA:202,0
DA:206,0
DA:210,0
DA:214,0
DA:217,0
DA:219,0
DA:223,0
DA:225,0
DA:226,0
DA:228,0
LF:88
LH:0
end_of_record
TN:
SF:/home/maxim/Рабочий стол/TestMemeger/Memeger/project/server/src/request.cpp
FN:12,_ZN7server37Request10req_methodERKS0_
FNDA:2,_ZN7server37Request10req_methodERKS0_
FNF:1
FNH:1
DA:12,2
DA:13,2
DA:14,1
DA:17,1
LF:4
LH:4
end_of_record
TN:
SF:/home/maxim/Рабочий стол/TestMemeger/Memeger/project/server/src/response.cpp
FN:15,_ZN7server39Not_FoundERNS_8ResponseE
FN:25,_ZN7server313Send_ResponseERNS_8ResponseENSt7__cxx1112basic_stringIcSt11char_traitsIcESaIcEEES7_
FN:41,_ZN7server34USER11check_loginERNS_7RequestERNS_8ResponseER10Postgre_DB
FN:71,_ZN7server34USER8get_userERNS_7RequestERNS_8ResponseER10Postgre_DB
FN:108,_ZN7server34CHAT16get_chat_by_nameERNS_7RequestERNS_8ResponseER10Postgre_DB
FN:142,_ZN7server34CHAT26get_participants_from_chatERNS_7RequestERNS_8ResponseER10Postgre_DB
FN:185,_ZN7server34CHAT22get_all_chats_by_loginERNS_7RequestERNS_8ResponseER10Postgre_DB
FN:233,_ZN7server34CHAT9find_chatERNS_7RequestERNS_8ResponseER10Postgre_DB
FN:264,_ZN7server37MESSAGE17get_last_messagesERNS_7RequestERNS_8ResponseER10Postgre_DB
FN:305,_ZN7server34USER12registrationERNS_7RequestERNS_8ResponseER10Postgre_DB
FN:333,_ZN7server34USER12change_loginERNS_7RequestERNS_8ResponseER10Postgre_DB
FN:362,_ZN7server34USER15change_passwordERNS_7RequestERNS_8ResponseER10Postgre_DB
FN:391,_ZN7server34USER18change_user_statusERNS_7RequestERNS_8ResponseER10Postgre_DB
FN:420,_ZN7server34USER11delete_userERNS_7RequestERNS_8ResponseER10Postgre_DB
FN:453,_ZN7server34CHAT8add_chatERNS_7RequestERNS_8ResponseER10Postgre_DB
FN:496,_ZN7server34CHAT19add_new_participantERNS_7RequestERNS_8ResponseER10Postgre_DB
FN:530,_ZN7server34CHAT16change_chat_nameERNS_7RequestERNS_8ResponseER10Postgre_DB
FN:565,_ZN7server34CHAT11delete_chatERNS_7RequestERNS_8ResponseER10Postgre_DB
FN:601,_ZN7server37MESSAGE11add_messageERNS_7RequestERNS_8ResponseER10Postgre_DB
FN:635,_ZN7server37MESSAGE14delete_messageERNS_7RequestERNS_8ResponseER10Postgre_DB
FNDA:1,_ZN7server37MESSAGE11add_messageERNS_7RequestERNS_8ResponseER10Postgre_DB
FNDA:1,_ZN7server34USER12change_loginERNS_7RequestERNS_8ResponseER10Postgre_DB
FNDA:1,_ZN7server34USER11delete_userERNS_7RequestERNS_8ResponseER10Postgre_DB
FNDA:1,_ZN7server34USER12registrationERNS_7RequestERNS_8ResponseER10Postgre_DB
FNDA:1,_ZN7server34USER18change_user_statusERNS_7RequestERNS_8ResponseER10Postgre_DB
FNDA:0,_ZN7server37MESSAGE17get_last_messagesERNS_7RequestERNS_8ResponseER10Postgre_DB
FNDA:2,_ZN7server34USER11check_loginERNS_7RequestERNS_8ResponseER10Postgre_DB
FNDA:1,_ZN7server34CHAT11delete_chatERNS_7RequestERNS_8ResponseER10Postgre_DB
FNDA:0,_ZN7server34CHAT16get_chat_by_nameERNS_7RequestERNS_8ResponseER10Postgre_DB
FNDA:2,_ZN7server39Not_FoundERNS_8ResponseE
FNDA:1,_ZN7server34USER15change_passwordERNS_7RequestERNS_8ResponseER10Postgre_DB
FNDA:0,_ZN7server34CHAT26get_participants_from_chatERNS_7RequestERNS_8ResponseER10Postgre_DB
FNDA:1,_ZN7server37MESSAGE14delete_messageERNS_7RequestERNS_8ResponseER10Postgre_DB
FNDA:1,_ZN7server34CHAT16change_chat_nameERNS_7RequestERNS_8ResponseER10Postgre_DB
FNDA:10,_ZN7server313Send_ResponseERNS_8ResponseENSt7__cxx1112basic_stringIcSt11char_traitsIcESaIcEEES7_
FNDA:0,_ZN7server34USER8get_userERNS_7RequestERNS_8ResponseER10Postgre_DB
FNDA:0,_ZN7server34CHAT9find_chatERNS_7RequestERNS_8ResponseER10Postgre_DB
FNDA:1,_ZN7server34CHAT8add_chatERNS_7RequestERNS_8ResponseER10Postgre_DB
FNDA:0,_ZN7server34CHAT22get_all_chats_by_loginERNS_7RequestERNS_8ResponseER10Postgre_DB
FNDA:0,_ZN7server34CHAT19add_new_participantERNS_7RequestERNS_8ResponseER10Postgre_DB
FNF:20
FNH:13
DA:15,2
DA:17,2
DA:18,2
DA:19,2
DA:20,2
DA:21,2
DA:22,2
DA:25,10
DA:27,10
DA:28,10
DA:29,10
DA:30,10
DA:31,10
DA:32,10
DA:33,10
DA:34,10
DA:35,10
DA:36,10
DA:41,2
DA:44,2
DA:45,2
DA:47,2
DA:49,2
DA:51,1
DA:52,1
DA:57,1
DA:67,1
DA:71,0
DA:73,0
DA:74,0
DA:78,0
DA:79,0
DA:80,0
DA:81,0
DA:83,0
DA:85,0
DA:86,0
DA:91,0
DA:101,0
DA:108,0
DA:110,0
DA:112,0
DA:116,0
DA:117,0
DA:119,0
DA:120,0
DA:122,0
DA:123,0
DA:128,0
DA:138,0
DA:142,0
DA:144,0
DA:146,0
DA:147,0
DA:149,0
DA:150,0
DA:152,0
DA:153,0
DA:155,0
DA:156,0
DA:158,0
DA:159,0
DA:163,0
DA:164,0
DA:166,0
DA:167,0
DA:172,0
DA:182,0
DA:185,0
DA:187,0
DA:190,0
DA:193,0
DA:194,0
DA:195,0
DA:197,0
DA:198,0
DA:200,0
DA:201,0
DA:203,0
DA:205,0
DA:206,0
DA:207,0
DA:208,0
DA:209,0
DA:211,0
DA:212,0
DA:219,0
DA:229,0
DA:233,0
DA:236,0
DA:237,0
DA:240,0
DA:242,0
DA:244,0
DA:245,0
DA:250,0
DA:260,0
DA:264,0
DA:266,0
DA:268,0
DA:269,0
DA:270,0
DA:271,0
DA:272,0
DA:275,0
DA:277,0
DA:278,0
DA:280,0
DA:281,0
DA:283,0
DA:284,0
DA:287,0
DA:297,0
DA:305,1
DA:307,1
DA:308,3
DA:310,1
DA:312,1
DA:314,0
DA:315,0
DA:318,1
DA:320,1
DA:331,1
DA:333,1
DA:335,1
DA:336,2
DA:339,1
DA:341,1
DA:343,0
DA:344,0
DA:347,1
DA:350,1
DA:360,1
DA:362,1
DA:364,1
DA:365,2
DA:368,1
DA:370,1
DA:372,0
DA:373,0
DA:376,1
DA:379,1
DA:389,1
DA:391,1
DA:393,1
DA:394,2
DA:397,1
DA:399,1
DA:401,0
DA:402,0
DA:405,1
DA:407,1
DA:418,1
DA:420,1
DA:422,1
DA:423,2
DA:426,1
DA:428,1
DA:430,0
DA:431,0
DA:434,1
DA:437,1
DA:447,1
DA:453,1
DA:455,1
DA:456,2
DA:457,1
DA:458,1
DA:459,2
DA:460,2
DA:462,1
DA:463,1
DA:467,3
DA:468,1
DA:471,1
DA:473,0
DA:474,0
DA:477,1
DA:483,1
DA:493,1
DA:496,0
DA:498,0
DA:500,0
DA:501,0
DA:502,0
DA:505,0
DA:507,0
DA:508,0
DA:511,0
DA:517,0
DA:527,0
DA:530,1
DA:532,1
DA:534,2
DA:536,1
DA:539,1
DA:541,0
DA:542,0
DA:546,1
DA:552,1
DA:562,1
DA:565,1
DA:567,1
DA:570,2
DA:571,1
DA:574,1
DA:576,0
DA:577,0
DA:580,1
DA:584,1
DA:594,1
DA:601,1
DA:603,1
DA:606,2
DA:607,2
DA:608,3
DA:609,1
DA:612,1
DA:615,0
DA:616,0
DA:619,1
DA:623,1
DA:633,1
DA:635,1
DA:637,1
DA:640,2
DA:641,2
DA:642,3
DA:643,1
DA:646,1
DA:649,1
DA:650,1
DA:653,0
DA:657,0
DA:667,0
LF:235
LH:117
end_of_record
TN:
SF:/home/maxim/Рабочий стол/TestMemeger/Memeger/project/server/test/unit.cpp
FN:26,_ZN29SERVER_check_method_post_TestD2Ev
FN:26,_ZN29SERVER_check_method_post_TestD0Ev
FN:26,_ZN29SERVER_check_method_post_TestC2Ev
FN:26,_ZN29SERVER_check_method_post_Test8TestBodyEv
FN:35,_ZN28SERVER_check_method_get_Test8TestBodyEv
FN:35,_ZN28SERVER_check_method_get_TestD0Ev
FN:35,_ZN28SERVER_check_method_get_TestC2Ev
FN:35,_ZN28SERVER_check_method_get_TestD2Ev
FN:43,_ZN35DataBaseEnvironment_check_user_Test8TestBodyEv
FN:43,_ZN35DataBaseEnvironment_check_user_TestC2Ev
FN:43,_ZN35DataBaseEnvironment_check_user_TestD2Ev
FN:43,_ZN35DataBaseEnvironment_check_user_TestD0Ev
FN:78,_ZN20SERVER_add_user_TestC2Ev
FN:78,_ZN20SERVER_add_user_TestD2Ev
FN:78,_ZN20SERVER_add_user_Test8TestBodyEv
FN:78,_ZN20SERVER_add_user_TestD0Ev
FN:121,_ZN23SERVER_check_login_TestD0Ev
FN:121,_ZN23SERVER_check_login_TestC2Ev
FN:121,_ZN23SERVER_check_login_Test8TestBodyEv
FN:121,_ZN23SERVER_check_login_TestD2Ev
FN:169,_ZN24SERVER_change_login_TestC2Ev
FN:169,_ZN24SERVER_change_login_Test8TestBodyEv
FN:169,_ZN24SERVER_change_login_TestD2Ev
FN:169,_ZN24SERVER_change_login_TestD0Ev
FN:218,_ZN27SERVER_change_password_TestD0Ev
FN:218,_ZN27SERVER_change_password_TestD2Ev
FN:218,_ZN27SERVER_change_password_Test8TestBodyEv
FN:218,_ZN27SERVER_change_password_TestC2Ev
FN:264,_ZN30SERVER_change_user_status_TestC2Ev
FN:264,_ZN30SERVER_change_user_status_TestD0Ev
FN:264,_ZN30SERVER_change_user_status_TestD2Ev
FN:264,_ZN30SERVER_change_user_status_Test8TestBodyEv
FN:306,_ZN20SERVER_add_chat_TestD0Ev
FN:306,_ZN20SERVER_add_chat_Test8TestBodyEv
FN:306,_ZN20SERVER_add_chat_TestD2Ev
FN:306,_ZN20SERVER_add_chat_TestC2Ev
FN:352,_ZN28SERVER_change_chat_name_TestC2Ev
FN:352,_ZN28SERVER_change_chat_name_Test8TestBodyEv
FN:352,_ZN28SERVER_change_chat_name_TestD0Ev
FN:352,_ZN28SERVER_change_chat_name_TestD2Ev
FN:393,_ZN23SERVER_add_message_TestC2Ev
FN:393,_ZN23SERVER_add_message_TestD0Ev
FN:393,_ZN23SERVER_add_message_TestD2Ev
FN:393,_ZN23SERVER_add_message_Test8TestBodyEv
FN:437,_ZN26SERVER_delete_message_TestD2Ev
FN:437,_ZN26SERVER_delete_message_Test8TestBodyEv
FN:437,_ZN26SERVER_delete_message_TestC2Ev
FN:437,_ZN26SERVER_delete_message_TestD0Ev
FN:481,_ZN23SERVER_delete_chat_TestD2Ev
FN:481,_ZN23SERVER_delete_chat_TestD0Ev
FN:481,_ZN23SERVER_delete_chat_TestC2Ev
FN:481,_ZN23SERVER_delete_chat_Test8TestBodyEv
FN:526,_ZN23SERVER_delete_user_TestD0Ev
FN:526,_ZN23SERVER_delete_user_TestC2Ev
FN:526,_ZN23SERVER_delete_user_TestD2Ev
FN:526,_ZN23SERVER_delete_user_Test8TestBodyEv
FN:566,main
FNDA:1,_ZN24SERVER_change_login_TestC2Ev
FNDA:1,_ZN26SERVER_delete_message_TestD2Ev
FNDA:1,_ZN29SERVER_check_method_post_TestD2Ev
FNDA:1,_ZN23SERVER_add_message_TestC2Ev
FNDA:1,_ZN23SERVER_delete_user_TestD0Ev
FNDA:1,main
FNDA:1,_ZN23SERVER_delete_user_TestC2Ev
FNDA:1,_ZN24SERVER_change_login_Test8TestBodyEv
FNDA:1,_ZN23SERVER_add_message_TestD2Ev
FNDA:1,_ZN23SERVER_add_message_TestD0Ev
FNDA:1,_ZN20SERVER_add_user_TestC2Ev
FNDA:1,_ZN26SERVER_delete_message_Test8TestBodyEv
FNDA:1,_ZN23SERVER_delete_chat_TestD0Ev
FNDA:1,_ZN20SERVER_add_chat_TestD0Ev
FNDA:1,_ZN23SERVER_delete_chat_TestD2Ev
FNDA:1,_ZN28SERVER_change_chat_name_TestC2Ev
FNDA:1,_ZN28SERVER_change_chat_name_Test8TestBodyEv
FNDA:1,_ZN24SERVER_change_login_TestD2Ev
FNDA:1,_ZN30SERVER_change_user_status_TestC2Ev
FNDA:1,_ZN23SERVER_check_login_TestD0Ev
FNDA:1,_ZN29SERVER_check_method_post_TestD0Ev
FNDA:1,_ZN35DataBaseEnvironment_check_user_Test8TestBodyEv
FNDA:1,_ZN20SERVER_add_user_Test8TestBodyEv
FNDA:1,_ZN20SERVER_add_user_TestD2Ev
FNDA:1,_ZN27SERVER_change_password_TestD0Ev
FNDA:1,_ZN23SERVER_delete_chat_Test8TestBodyEv
FNDA:1,_ZN20SERVER_add_chat_Test8TestBodyEv
FNDA:1,_ZN23SERVER_delete_user_TestD2Ev
FNDA:1,_ZN20SERVER_add_user_TestD0Ev
FNDA:1,_ZN27SERVER_change_password_TestD2Ev
FNDA:1,_ZN23SERVER_add_message_Test8TestBodyEv
FNDA:1,_ZN23SERVER_delete_chat_TestC2Ev
FNDA:1,_ZN28SERVER_check_method_get_Test8TestBodyEv
FNDA:1,_ZN23SERVER_check_login_Test8TestBodyEv
FNDA:1,_ZN23SERVER_check_login_TestC2Ev
FNDA:1,_ZN26SERVER_delete_message_TestC2Ev
FNDA:1,_ZN28SERVER_change_chat_name_TestD0Ev
FNDA:1,_ZN20SERVER_add_chat_TestD2Ev
FNDA:1,_ZN35DataBaseEnvironment_check_user_TestD2Ev
FNDA:1,_ZN35DataBaseEnvironment_check_user_TestC2Ev
FNDA:1,_ZN23SERVER_check_login_TestD2Ev
FNDA:1,_ZN27SERVER_change_password_TestC2Ev
FNDA:1,_ZN30SERVER_change_user_status_TestD0Ev
FNDA:1,_ZN27SERVER_change_password_Test8TestBodyEv
FNDA:1,_ZN26SERVER_delete_message_TestD0Ev
FNDA:1,_ZN23SERVER_delete_user_Test8TestBodyEv
FNDA:1,_ZN35DataBaseEnvironment_check_user_TestD0Ev
FNDA:1,_ZN28SERVER_check_method_get_TestD2Ev
FNDA:1,_ZN20SERVER_add_chat_TestC2Ev
FNDA:1,_ZN30SERVER_change_user_status_Test8TestBodyEv
FNDA:1,_ZN28SERVER_check_method_get_TestC2Ev
FNDA:1,_ZN30SERVER_change_user_status_TestD2Ev
FNDA:1,_ZN29SERVER_check_method_post_Test8TestBodyEv
FNDA:1,_ZN28SERVER_change_chat_name_TestD2Ev
FNDA:1,_ZN28SERVER_check_method_get_TestD0Ev
FNDA:1,_ZN29SERVER_check_method_post_TestC2Ev
FNDA:1,_ZN24SERVER_change_login_TestD0Ev
FNF:57
FNH:57
DA:26,4
DA:29,2
DA:30,1
DA:31,1
DA:32,1
DA:34,1
DA:35,4
DA:37,2
DA:38,1
DA:39,1
DA:40,1
DA:42,1
DA:43,4
DA:45,3
DA:47,2
DA:48,2
DA:49,2
DA:51,2
DA:52,2
DA:53,3
DA:55,2
DA:56,1
DA:57,1
DA:58,1
DA:61,1
DA:63,1
DA:72,1
DA:74,1
DA:77,1
DA:78,4
DA:84,3
DA:85,2
DA:86,2
DA:88,2
DA:89,2
DA:92,3
DA:97,2
DA:98,1
DA:99,1
DA:100,1
DA:103,1
DA:105,1
DA:114,1
DA:116,1
DA:119,1
DA:121,4
DA:127,3
DA:128,2
DA:129,2
DA:131,2
DA:135,2
DA:140,2
DA:141,1
DA:142,1
DA:143,1
DA:146,1
DA:148,1
DA:157,1
DA:159,1
DA:162,1
DA:169,4
DA:175,3
DA:176,2
DA:177,2
DA:179,2
DA:182,2
DA:184,2
DA:185,3
DA:190,2
DA:191,1
DA:192,1
DA:193,1
DA:196,1
DA:198,1
DA:207,1
DA:209,1
DA:212,1
DA:218,4
DA:224,3
DA:225,2
DA:226,2
DA:228,2
DA:229,2
DA:231,2
DA:233,3
DA:237,2
DA:238,1
DA:239,1
DA:240,1
DA:243,1
DA:245,1
DA:254,1
DA:256,1
DA:259,1
DA:264,4
DA:270,3
DA:271,2
DA:272,2
DA:274,2
DA:275,2
DA:276,3
DA:280,2
DA:281,1
DA:282,1
DA:283,1
DA:286,1
DA:288,1
DA:297,1
DA:299,1
DA:302,1
DA:306,4
DA:312,3
DA:313,2
DA:314,2
DA:316,2
DA:317,2
DA:318,1
DA:320,1
DA:322,3
DA:326,2
DA:327,1
DA:328,1
DA:329,1
DA:332,1
DA:334,1
DA:343,1
DA:345,1
DA:348,1
DA:352,4
DA:358,3
DA:359,2
DA:360,2
DA:362,2
DA:363,2
DA:366,3
DA:369,2
DA:370,1
DA:371,1
DA:372,1
DA:375,1
DA:377,1
DA:386,1
DA:388,1
DA:391,1
DA:393,4
DA:399,3
DA:400,2
DA:401,2
DA:403,2
DA:404,2
DA:405,2
DA:407,3
DA:410,2
DA:411,1
DA:412,1
DA:413,1
DA:416,1
DA:418,1
DA:427,1
DA:429,1
DA:432,1
DA:437,4
DA:443,3
DA:444,2
DA:445,2
DA:446,2
DA:447,2
DA:448,2
DA:450,3
DA:453,2
DA:454,1
DA:455,1
DA:456,1
DA:459,1
DA:461,1
DA:470,1
DA:472,1
DA:475,1
DA:481,4
DA:487,3
DA:488,2
DA:489,2
DA:491,2
DA:492,2
DA:493,1
DA:495,1
DA:497,3
DA:501,2
DA:502,1
DA:503,1
DA:504,1
DA:507,1
DA:509,1
DA:518,1
DA:520,1
DA:523,1
DA:526,4
DA:532,3
DA:533,2
DA:534,2
DA:536,2
DA:538,2
DA:543,2
DA:544,1
DA:545,1
DA:546,1
DA:549,1
DA:551,1
DA:560,1
DA:562,1
DA:563,1
DA:565,1
DA:566,1
DA:569,1
DA:570,1
LF:215
LH:215
end_of_record
